	.file	"18_constants_literals.cpp"
	.text
.Ltext0:
	.cfi_sections	.debug_frame
	.file 0 "C://msys64//ucrt64//bin" "C:/cpp_course/src/chapter02/18_constants_literals.cpp"
	.section .rdata,"dr"
	.align 8
.LC0:
	.ascii "=== \355\224\204\353\241\234\352\267\270\353\236\250 \354\213\244\355\226\211 \353\213\250\352\263\204\353\263\204 \354\203\201\354\210\230 \354\262\230\353\246\254 ===\0"
	.align 8
.LC1:
	.ascii "1. \354\240\204\354\262\230\353\246\254: #define MAX_BUFFER_SIZE -> \0"
	.align 8
.LC2:
	.ascii "   (\354\206\214\354\212\244 \354\275\224\353\223\234\354\227\220\354\204\234 MAX_BUFFER_SIZE\352\260\200 1024\353\241\234 \354\271\230\355\231\230\353\220\250)\0"
	.text
	.globl	main
	.def	main;	.scl	2;	.type	32;	.endef
	.seh_proc	main
main:
.LFB2214:
	.file 1 "C:/cpp_course/src/chapter02/18_constants_literals.cpp"
	.loc 1 41 12
	.cfi_startproc
	pushq	%rbp
	.seh_pushreg	%rbp
	.cfi_def_cfa_offset 16
	.cfi_offset 6, -16
	movq	%rsp, %rbp
	.seh_setframe	%rbp, 0
	.cfi_def_cfa_register 6
	subq	$32, %rsp
	.seh_stackalloc	32
	.seh_endprologue
	.loc 1 41 12
	call	__main
	.loc 1 43 13
	leaq	.LC0(%rip), %rax
	movq	%rax, %rdx
	movq	.refptr._ZSt4cout(%rip), %rax
	movq	%rax, %rcx
	call	_ZStlsISt11char_traitsIcEERSt13basic_ostreamIcT_ES5_PKc
	movq	%rax, %rcx
	.loc 1 43 70 discriminator 1
	movq	.refptr._ZSt4endlIcSt11char_traitsIcEERSt13basic_ostreamIT_T0_ES6_(%rip), %rax
	movq	%rax, %rdx
	call	_ZNSolsEPFRSoS_E
	.loc 1 46 13
	leaq	.LC1(%rip), %rax
	movq	%rax, %rdx
	movq	.refptr._ZSt4cout(%rip), %rax
	movq	%rax, %rcx
	call	_ZStlsISt11char_traitsIcEERSt13basic_ostreamIcT_ES5_PKc
	.loc 1 46 60 discriminator 1
	movl	$1024, %edx
	movq	%rax, %rcx
	call	_ZNSolsEi
	movq	%rax, %rcx
	.loc 1 46 68 discriminator 2
	movq	.refptr._ZSt4endlIcSt11char_traitsIcEERSt13basic_ostreamIT_T0_ES6_(%rip), %rax
	movq	%rax, %rdx
	call	_ZNSolsEPFRSoS_E
	.loc 1 47 13
	leaq	.LC2(%rip), %rax
	movq	%rax, %rdx
	movq	.refptr._ZSt4cout(%rip), %rax
	movq	%rax, %rcx
	call	_ZStlsISt11char_traitsIcEERSt13basic_ostreamIcT_ES5_PKc
	movq	%rax, %rcx
	.loc 1 47 80 discriminator 1
	movq	.refptr._ZSt4endlIcSt11char_traitsIcEERSt13basic_ostreamIT_T0_ES6_(%rip), %rax
	movq	%rax, %rdx
	call	_ZNSolsEPFRSoS_E
	.loc 1 50 12
	movl	$0, %eax
	.loc 1 51 1
	addq	$32, %rsp
	popq	%rbp
	.cfi_restore 6
	.cfi_def_cfa 7, 8
	ret
	.cfi_endproc
.LFE2214:
	.seh_endproc
	.section .rdata,"dr"
_ZNSt8__detail30__integer_to_chars_is_unsignedIjEE:
	.byte	1
_ZNSt8__detail30__integer_to_chars_is_unsignedImEE:
	.byte	1
_ZNSt8__detail30__integer_to_chars_is_unsignedIyEE:
	.byte	1
	.text
.Letext0:
	.file 2 "C:/msys64/ucrt64/include/corecrt.h"
	.file 3 "C:/msys64/ucrt64/include/wchar.h"
	.file 4 "C:/msys64/ucrt64/include/c++/14.2.0/cwchar"
	.file 5 "C:/msys64/ucrt64/include/c++/14.2.0/x86_64-w64-mingw32/bits/c++config.h"
	.file 6 "C:/msys64/ucrt64/include/c++/14.2.0/type_traits"
	.file 7 "C:/msys64/ucrt64/include/c++/14.2.0/bits/exception_ptr.h"
	.file 8 "C:/msys64/ucrt64/include/c++/14.2.0/bits/char_traits.h"
	.file 9 "C:/msys64/ucrt64/include/c++/14.2.0/clocale"
	.file 10 "C:/msys64/ucrt64/include/c++/14.2.0/bits/new_allocator.h"
	.file 11 "C:/msys64/ucrt64/include/c++/14.2.0/bits/allocator.h"
	.file 12 "C:/msys64/ucrt64/include/c++/14.2.0/debug/debug.h"
	.file 13 "C:/msys64/ucrt64/include/c++/14.2.0/string_view"
	.file 14 "C:/msys64/ucrt64/include/c++/14.2.0/cstdlib"
	.file 15 "C:/msys64/ucrt64/include/c++/14.2.0/cstdio"
	.file 16 "C:/msys64/ucrt64/include/c++/14.2.0/bits/alloc_traits.h"
	.file 17 "C:/msys64/ucrt64/include/c++/14.2.0/bits/basic_string.h"
	.file 18 "C:/msys64/ucrt64/include/c++/14.2.0/initializer_list"
	.file 19 "C:/msys64/ucrt64/include/c++/14.2.0/bits/stl_iterator_base_types.h"
	.file 20 "C:/msys64/ucrt64/include/c++/14.2.0/cstddef"
	.file 21 "C:/msys64/ucrt64/include/c++/14.2.0/bits/memory_resource.h"
	.file 22 "C:/msys64/ucrt64/include/c++/14.2.0/cwctype"
	.file 23 "C:/msys64/ucrt64/include/c++/14.2.0/bits/ostream.tcc"
	.file 24 "C:/msys64/ucrt64/include/c++/14.2.0/ostream"
	.file 25 "C:/msys64/ucrt64/include/c++/14.2.0/iosfwd"
	.file 26 "C:/msys64/ucrt64/include/c++/14.2.0/bits/charconv.h"
	.file 27 "C:/msys64/ucrt64/include/swprintf.inl"
	.file 28 "C:/msys64/ucrt64/include/c++/14.2.0/bits/predefined_ops.h"
	.file 29 "C:/msys64/ucrt64/include/c++/14.2.0/ext/alloc_traits.h"
	.file 30 "C:/msys64/ucrt64/include/c++/14.2.0/bits/stl_iterator.h"
	.file 31 "C:/msys64/ucrt64/include/stddef.h"
	.file 32 "C:/msys64/ucrt64/include/stdio.h"
	.file 33 "C:/msys64/ucrt64/include/locale.h"
	.file 34 "C:/msys64/ucrt64/include/stdlib.h"
	.file 35 "C:/msys64/ucrt64/include/process.h"
	.file 36 "C:/msys64/ucrt64/include/wctype.h"
	.file 37 "C:/msys64/ucrt64/include/c++/14.2.0/system_error"
	.file 38 "C:/msys64/ucrt64/include/c++/14.2.0/iostream"
	.section	.rdata$.refptr._ZSt4endlIcSt11char_traitsIcEERSt13basic_ostreamIT_T0_ES6_, "dr"
	.globl	.refptr._ZSt4endlIcSt11char_traitsIcEERSt13basic_ostreamIT_T0_ES6_
	.linkonce	discard
.refptr._ZSt4endlIcSt11char_traitsIcEERSt13basic_ostreamIT_T0_ES6_:
	.quad	_ZSt4endlIcSt11char_traitsIcEERSt13basic_ostreamIT_T0_ES6_
	.section	.rdata$.refptr._ZSt4cout, "dr"
	.globl	.refptr._ZSt4cout
	.linkonce	discard
.refptr._ZSt4cout:
	.quad	_ZSt4cout
